; Function Attrs: mustprogress uwtable
define hidden noundef ptr @_Z34pj_projection_specific_setup_tpersP8PJconsts(ptr noundef %0) local_unnamed_addr #0 {
  %2 = tail call noalias dereferenceable_or_null(104) ptr @calloc(i64 noundef 1, i64 noundef 104) #5
  %3 = icmp eq ptr %2, null
  br i1 %3, label %4, label %6

4:                                                ; preds = %1
  %5 = tail call noundef ptr @_Z21pj_default_destructorP8PJconstsi(ptr noundef %0, i32 noundef 4096)
  br label %27

6:                                                ; preds = %1
  %7 = getelementptr inbounds nuw i8, ptr %0, i64 88
  store ptr %2, ptr %7, align 8, !tbaa !3
  %8 = load ptr, ptr %0, align 8, !tbaa !41
  %9 = getelementptr inbounds nuw i8, ptr %0, i64 24
  %10 = load ptr, ptr %9, align 8, !tbaa !42
  %11 = tail call i64 @_Z8pj_paramP6pj_ctxP8ARG_listPKc(ptr noundef %8, ptr noundef %10, ptr noundef nonnull @.str.2)
  %12 = bitcast i64 %11 to double
  %13 = load ptr, ptr %0, align 8, !tbaa !41
  %14 = load ptr, ptr %9, align 8, !tbaa !42
  %15 = tail call i64 @_Z8pj_paramP6pj_ctxP8ARG_listPKc(ptr noundef %13, ptr noundef %14, ptr noundef nonnull @.str.3)
  %16 = bitcast i64 %15 to double
  %17 = getelementptr inbounds nuw i8, ptr %2, i64 100
  store i32 1, ptr %17, align 4, !tbaa !60
  %18 = tail call double @cos(double noundef %16) #6, !tbaa !48
  %19 = getelementptr inbounds nuw i8, ptr %2, i64 64
  store double %18, ptr %19, align 8, !tbaa !61
  %20 = tail call double @sin(double noundef %16) #6, !tbaa !48
  %21 = getelementptr inbounds nuw i8, ptr %2, i64 72
  store double %20, ptr %21, align 8, !tbaa !62
  %22 = tail call double @cos(double noundef %12) #6, !tbaa !48
  %23 = getelementptr inbounds nuw i8, ptr %2, i64 88
  store double %22, ptr %23, align 8, !tbaa !63
  %24 = tail call double @sin(double noundef %12) #6, !tbaa !48
  %25 = getelementptr inbounds nuw i8, ptr %2, i64 80
  store double %24, ptr %25, align 8, !tbaa !64
  %26 = tail call fastcc noundef ptr @_ZL11nsper_setupP8PJconsts(ptr noundef nonnull %0)
  br label %27

27:                                               ; preds = %6, %4
  %.0 = phi ptr [ %5, %4 ], [ %26, %6 ]
  ret ptr %.0
}